; ModuleID = '9/11.c'
source_filename = "9/11.c"
target datalayout = "e-m:e-p270:32:32-p271:32:32-p272:64:64-i64:64-f80:128-n8:16:32:64-S128"
target triple = "x86_64-pc-linux-gnu"

@.str = private unnamed_addr constant [3 x i8] c"%d\00", align 1
@.str.1 = private unnamed_addr constant [6 x i8] c"%s %d\00", align 1
@.str.2 = private unnamed_addr constant [4 x i8] c"%s\0A\00", align 1

; Function Attrs: noinline nounwind uwtable
define dso_local i32 @main() #0 {
  %1 = alloca i32, align 4
  %2 = alloca i32, align 4
  %3 = alloca [100 x [10 x i8]], align 16
  %4 = alloca [100 x i32], align 16
  %5 = alloca i32, align 4
  %6 = alloca [100 x i32], align 16
  %7 = alloca [100 x [10 x i8]], align 16
  %8 = alloca i32, align 4
  %9 = alloca i32, align 4
  %10 = alloca i32, align 4
  %11 = alloca i32, align 4
  %12 = alloca [10 x i8], align 1
  %13 = alloca i32, align 4
  %14 = alloca i32, align 4
  %15 = alloca i32, align 4
  %16 = alloca i32, align 4
  store i32 0, i32* %1, align 4
  %17 = call i32 (i8*, ...) @__isoc99_scanf(i8* getelementptr inbounds ([3 x i8], [3 x i8]* @.str, i64 0, i64 0), i32* %2)
  store i32 0, i32* %5, align 4
  store i32 0, i32* %8, align 4
  br label %18

18:                                               ; preds = %31, %0
  %19 = load i32, i32* %8, align 4
  %20 = load i32, i32* %2, align 4
  %21 = icmp slt i32 %19, %20
  br i1 %21, label %22, label %34

22:                                               ; preds = %18
  %23 = load i32, i32* %8, align 4
  %24 = sext i32 %23 to i64
  %25 = getelementptr inbounds [100 x [10 x i8]], [100 x [10 x i8]]* %3, i64 0, i64 %24
  %26 = getelementptr inbounds [10 x i8], [10 x i8]* %25, i64 0, i64 0
  %27 = load i32, i32* %8, align 4
  %28 = sext i32 %27 to i64
  %29 = getelementptr inbounds [100 x i32], [100 x i32]* %4, i64 0, i64 %28
  %30 = call i32 (i8*, ...) @__isoc99_scanf(i8* getelementptr inbounds ([6 x i8], [6 x i8]* @.str.1, i64 0, i64 0), i8* %26, i32* %29)
  br label %31

31:                                               ; preds = %22
  %32 = load i32, i32* %8, align 4
  %33 = add nsw i32 %32, 1
  store i32 %33, i32* %8, align 4
  br label %18

34:                                               ; preds = %18
  store i32 0, i32* %9, align 4
  br label %35

35:                                               ; preds = %65, %34
  %36 = load i32, i32* %9, align 4
  %37 = load i32, i32* %2, align 4
  %38 = icmp slt i32 %36, %37
  br i1 %38, label %39, label %68

39:                                               ; preds = %35
  %40 = load i32, i32* %9, align 4
  %41 = sext i32 %40 to i64
  %42 = getelementptr inbounds [100 x i32], [100 x i32]* %4, i64 0, i64 %41
  %43 = load i32, i32* %42, align 4
  %44 = icmp sge i32 %43, 60
  br i1 %44, label %45, label %64

45:                                               ; preds = %39
  %46 = load i32, i32* %9, align 4
  %47 = sext i32 %46 to i64
  %48 = getelementptr inbounds [100 x i32], [100 x i32]* %4, i64 0, i64 %47
  %49 = load i32, i32* %48, align 4
  %50 = load i32, i32* %5, align 4
  %51 = sext i32 %50 to i64
  %52 = getelementptr inbounds [100 x i32], [100 x i32]* %6, i64 0, i64 %51
  store i32 %49, i32* %52, align 4
  %53 = load i32, i32* %5, align 4
  %54 = sext i32 %53 to i64
  %55 = getelementptr inbounds [100 x [10 x i8]], [100 x [10 x i8]]* %7, i64 0, i64 %54
  %56 = getelementptr inbounds [10 x i8], [10 x i8]* %55, i64 0, i64 0
  %57 = load i32, i32* %9, align 4
  %58 = sext i32 %57 to i64
  %59 = getelementptr inbounds [100 x [10 x i8]], [100 x [10 x i8]]* %3, i64 0, i64 %58
  %60 = getelementptr inbounds [10 x i8], [10 x i8]* %59, i64 0, i64 0
  %61 = call i8* @strcpy(i8* %56, i8* %60) #3
  %62 = load i32, i32* %5, align 4
  %63 = add nsw i32 %62, 1
  store i32 %63, i32* %5, align 4
  br label %64

64:                                               ; preds = %45, %39
  br label %65

65:                                               ; preds = %64
  %66 = load i32, i32* %9, align 4
  %67 = add nsw i32 %66, 1
  store i32 %67, i32* %9, align 4
  br label %35

68:                                               ; preds = %35
  %69 = load i32, i32* %5, align 4
  store i32 %69, i32* %10, align 4
  store i32 0, i32* %13, align 4
  br label %70

70:                                               ; preds = %100, %68
  %71 = load i32, i32* %13, align 4
  %72 = load i32, i32* %2, align 4
  %73 = icmp slt i32 %71, %72
  br i1 %73, label %74, label %103

74:                                               ; preds = %70
  %75 = load i32, i32* %13, align 4
  %76 = sext i32 %75 to i64
  %77 = getelementptr inbounds [100 x i32], [100 x i32]* %4, i64 0, i64 %76
  %78 = load i32, i32* %77, align 4
  %79 = icmp slt i32 %78, 60
  br i1 %79, label %80, label %99

80:                                               ; preds = %74
  %81 = load i32, i32* %13, align 4
  %82 = sext i32 %81 to i64
  %83 = getelementptr inbounds [100 x i32], [100 x i32]* %4, i64 0, i64 %82
  %84 = load i32, i32* %83, align 4
  %85 = load i32, i32* %5, align 4
  %86 = sext i32 %85 to i64
  %87 = getelementptr inbounds [100 x i32], [100 x i32]* %6, i64 0, i64 %86
  store i32 %84, i32* %87, align 4
  %88 = load i32, i32* %5, align 4
  %89 = sext i32 %88 to i64
  %90 = getelementptr inbounds [100 x [10 x i8]], [100 x [10 x i8]]* %7, i64 0, i64 %89
  %91 = getelementptr inbounds [10 x i8], [10 x i8]* %90, i64 0, i64 0
  %92 = load i32, i32* %13, align 4
  %93 = sext i32 %92 to i64
  %94 = getelementptr inbounds [100 x [10 x i8]], [100 x [10 x i8]]* %3, i64 0, i64 %93
  %95 = getelementptr inbounds [10 x i8], [10 x i8]* %94, i64 0, i64 0
  %96 = call i8* @strcpy(i8* %91, i8* %95) #3
  %97 = load i32, i32* %5, align 4
  %98 = add nsw i32 %97, 1
  store i32 %98, i32* %5, align 4
  br label %99

99:                                               ; preds = %80, %74
  br label %100

100:                                              ; preds = %99
  %101 = load i32, i32* %13, align 4
  %102 = add nsw i32 %101, 1
  store i32 %102, i32* %13, align 4
  br label %70

103:                                              ; preds = %70
  store i32 1, i32* %14, align 4
  br label %104

104:                                              ; preds = %172, %103
  %105 = load i32, i32* %14, align 4
  %106 = load i32, i32* %10, align 4
  %107 = icmp sle i32 %105, %106
  br i1 %107, label %108, label %175

108:                                              ; preds = %104
  store i32 0, i32* %15, align 4
  br label %109

109:                                              ; preds = %168, %108
  %110 = load i32, i32* %15, align 4
  %111 = load i32, i32* %10, align 4
  %112 = load i32, i32* %14, align 4
  %113 = sub nsw i32 %111, %112
  %114 = icmp slt i32 %110, %113
  br i1 %114, label %115, label %171

115:                                              ; preds = %109
  %116 = load i32, i32* %15, align 4
  %117 = sext i32 %116 to i64
  %118 = getelementptr inbounds [100 x i32], [100 x i32]* %6, i64 0, i64 %117
  %119 = load i32, i32* %118, align 4
  %120 = load i32, i32* %15, align 4
  %121 = add nsw i32 %120, 1
  %122 = sext i32 %121 to i64
  %123 = getelementptr inbounds [100 x i32], [100 x i32]* %6, i64 0, i64 %122
  %124 = load i32, i32* %123, align 4
  %125 = icmp slt i32 %119, %124
  br i1 %125, label %126, label %167

126:                                              ; preds = %115
  %127 = load i32, i32* %15, align 4
  %128 = sext i32 %127 to i64
  %129 = getelementptr inbounds [100 x i32], [100 x i32]* %6, i64 0, i64 %128
  %130 = load i32, i32* %129, align 4
  store i32 %130, i32* %11, align 4
  %131 = load i32, i32* %15, align 4
  %132 = add nsw i32 %131, 1
  %133 = sext i32 %132 to i64
  %134 = getelementptr inbounds [100 x i32], [100 x i32]* %6, i64 0, i64 %133
  %135 = load i32, i32* %134, align 4
  %136 = load i32, i32* %15, align 4
  %137 = sext i32 %136 to i64
  %138 = getelementptr inbounds [100 x i32], [100 x i32]* %6, i64 0, i64 %137
  store i32 %135, i32* %138, align 4
  %139 = load i32, i32* %11, align 4
  %140 = load i32, i32* %15, align 4
  %141 = add nsw i32 %140, 1
  %142 = sext i32 %141 to i64
  %143 = getelementptr inbounds [100 x i32], [100 x i32]* %6, i64 0, i64 %142
  store i32 %139, i32* %143, align 4
  %144 = getelementptr inbounds [10 x i8], [10 x i8]* %12, i64 0, i64 0
  %145 = load i32, i32* %15, align 4
  %146 = sext i32 %145 to i64
  %147 = getelementptr inbounds [100 x [10 x i8]], [100 x [10 x i8]]* %7, i64 0, i64 %146
  %148 = getelementptr inbounds [10 x i8], [10 x i8]* %147, i64 0, i64 0
  %149 = call i8* @strcpy(i8* %144, i8* %148) #3
  %150 = load i32, i32* %15, align 4
  %151 = sext i32 %150 to i64
  %152 = getelementptr inbounds [100 x [10 x i8]], [100 x [10 x i8]]* %7, i64 0, i64 %151
  %153 = getelementptr inbounds [10 x i8], [10 x i8]* %152, i64 0, i64 0
  %154 = load i32, i32* %15, align 4
  %155 = add nsw i32 %154, 1
  %156 = sext i32 %155 to i64
  %157 = getelementptr inbounds [100 x [10 x i8]], [100 x [10 x i8]]* %7, i64 0, i64 %156
  %158 = getelementptr inbounds [10 x i8], [10 x i8]* %157, i64 0, i64 0
  %159 = call i8* @strcpy(i8* %153, i8* %158) #3
  %160 = load i32, i32* %15, align 4
  %161 = add nsw i32 %160, 1
  %162 = sext i32 %161 to i64
  %163 = getelementptr inbounds [100 x [10 x i8]], [100 x [10 x i8]]* %7, i64 0, i64 %162
  %164 = getelementptr inbounds [10 x i8], [10 x i8]* %163, i64 0, i64 0
  %165 = getelementptr inbounds [10 x i8], [10 x i8]* %12, i64 0, i64 0
  %166 = call i8* @strcpy(i8* %164, i8* %165) #3
  br label %167

167:                                              ; preds = %126, %115
  br label %168

168:                                              ; preds = %167
  %169 = load i32, i32* %15, align 4
  %170 = add nsw i32 %169, 1
  store i32 %170, i32* %15, align 4
  br label %109

171:                                              ; preds = %109
  br label %172

172:                                              ; preds = %171
  %173 = load i32, i32* %14, align 4
  %174 = add nsw i32 %173, 1
  store i32 %174, i32* %14, align 4
  br label %104

175:                                              ; preds = %104
  store i32 0, i32* %16, align 4
  br label %176

176:                                              ; preds = %186, %175
  %177 = load i32, i32* %16, align 4
  %178 = load i32, i32* %2, align 4
  %179 = icmp slt i32 %177, %178
  br i1 %179, label %180, label %189

180:                                              ; preds = %176
  %181 = load i32, i32* %16, align 4
  %182 = sext i32 %181 to i64
  %183 = getelementptr inbounds [100 x [10 x i8]], [100 x [10 x i8]]* %7, i64 0, i64 %182
  %184 = getelementptr inbounds [10 x i8], [10 x i8]* %183, i64 0, i64 0
  %185 = call i32 (i8*, ...) @printf(i8* getelementptr inbounds ([4 x i8], [4 x i8]* @.str.2, i64 0, i64 0), i8* %184)
  br label %186

186:                                              ; preds = %180
  %187 = load i32, i32* %16, align 4
  %188 = add nsw i32 %187, 1
  store i32 %188, i32* %16, align 4
  br label %176

189:                                              ; preds = %176
  ret i32 0
}

declare dso_local i32 @__isoc99_scanf(i8*, ...) #1

; Function Attrs: nounwind
declare dso_local i8* @strcpy(i8*, i8*) #2

declare dso_local i32 @printf(i8*, ...) #1


!llvm.module.flags = !{!0}
!llvm.ident = !{!1}

!0 = !{i32 1, !"wchar_size", i32 4}
!1 = !{!"clang version 10.0.0-4ubuntu1 "}
